Certificate:
    Data:
        Version: 3 (0x2)
        Serial Number: 2 (0x2)
        Signature Algorithm: sha1WithRSAEncryption
        Issuer: C=NO, O=Green AS, OU=Green Certificate Authority, CN=Green Root CA
        Validity
            Not Before: Aug  9 09:06:13 2021 GMT
            Not After : Aug  9 09:06:13 2031 GMT
        Subject: C=NO, O=Green AS, OU=Green Certificate Authority, CN=Green Email CA
        Subject Public Key Info:
            Public Key Algorithm: rsaEncryption
                RSA Public-Key: (2048 bit)
                Modulus:
                    00:c8:e3:26:59:87:6f:dd:59:a7:d0:88:18:ad:eb:
                    ac:c5:31:28:fd:c2:10:7d:ba:43:c7:91:e1:ba:c7:
                    2c:ad:b4:5f:e2:48:0c:32:d9:f3:5c:fa:4d:62:d8:
                    8d:25:8e:67:1c:a4:73:75:36:b4:80:27:d8:5c:14:
                    d3:b7:e5:7d:77:f2:d0:e2:6a:6a:83:39:81:2f:db:
                    5c:26:7b:22:1c:fc:57:f9:2d:42:5a:58:d1:7c:7d:
                    b9:b6:ee:1d:ae:37:68:b3:04:be:1c:6a:db:da:ed:
                    19:28:b8:af:d5:86:b9:a5:d1:47:b1:de:20:94:61:
                    12:e5:d7:3f:9d:0a:07:a5:96:78:f6:16:37:a5:e9:
                    2c:39:38:99:f6:67:e5:30:ad:11:5f:c9:db:c7:21:
                    24:43:8f:c8:46:fc:59:d5:fa:12:4c:c0:30:99:0e:
                    97:20:e5:10:24:54:ba:dc:bb:0c:80:5b:1a:53:ef:
                    51:56:a2:77:8b:52:f9:36:8a:84:af:9d:b6:79:d6:
                    d9:17:bc:3a:b2:27:fc:45:fe:b8:59:80:bf:08:5e:
                    47:c2:9d:90:ed:ef:ce:d0:7d:59:0f:df:28:e9:1e:
                    73:d2:ea:fe:d7:4c:21:b5:66:35:96:18:d2:f6:ca:
                    f3:c7:5d:8b:bb:25:44:1b:48:ab:c1:e1:88:b3:1f:
                    9e:91
                Exponent: 65537 (0x10001)
        X509v3 extensions:
            X509v3 Key Usage: critical
                Certificate Sign, CRL Sign
            X509v3 Basic Constraints: critical
                CA:TRUE, pathlen:0
            X509v3 Subject Key Identifier: 
                DE:B3:F5:60:D9:C0:01:E4:3E:26:C9:5A:8F:14:F0:30:F8:BF:B1:7C
            X509v3 Authority Key Identifier: 
                keyid:E5:93:44:2B:58:DC:FE:D2:49:CE:96:EF:02:CF:89:EA:BA:44:E8:9F

            Authority Information Access: 
                CA Issuers - URI:http://green.no/ca/root-ca.cer

            X509v3 CRL Distribution Points: 

                Full Name:
                  URI:http://green.no/ca/root-ca.crl

    Signature Algorithm: sha1WithRSAEncryption
         04:f4:93:89:b2:12:36:96:40:80:dc:99:85:43:93:ff:1c:94:
         00:b8:34:8b:a5:82:fd:da:19:39:16:ac:eb:0d:d0:f1:e0:e0:
         d1:7d:90:e8:93:34:86:93:73:8b:9c:53:89:ef:7f:dc:73:65:
         fb:fd:57:35:3c:33:ac:d9:86:c0:20:a9:51:02:8e:c5:eb:5f:
         1b:d7:c3:4f:fe:2a:3e:b1:61:15:18:7d:22:34:ac:d0:f7:ce:
         4d:c7:24:c8:05:7e:d2:9c:3a:55:24:eb:3d:52:63:32:1f:3f:
         a4:ab:00:33:31:ca:67:9e:ed:46:40:a6:03:78:d8:16:c2:40:
         20:54:df:26:c1:c8:12:b4:4e:39:92:5d:fd:f1:28:e9:cb:c3:
         f8:ac:23:77:bf:00:e7:54:12:47:6e:6b:7d:ff:4e:f3:f9:46:
         7e:f6:26:4e:ce:e9:a3:82:74:af:6f:68:9c:45:ca:a7:fe:c6:
         66:bc:59:af:ce:b3:d4:23:87:19:cc:8f:db:77:25:39:86:79:
         c2:88:fc:0d:24:46:ff:61:91:9f:46:c3:80:1a:5c:07:5e:a4:
         42:b1:32:00:12:e2:5b:14:b6:6b:3b:a2:b2:18:47:c3:7e:1a:
         85:00:fe:7e:88:34:89:11:2a:03:e2:3b:60:85:f7:40:c3:42:
         a2:04:03:f1
-----BEGIN CERTIFICATE-----
MIIEDTCCAvWgAwIBAgIBAjANBgkqhkiG9w0BAQUFADBeMQswCQYDVQQGEwJOTzER
MA8GA1UECgwIR3JlZW4gQVMxJDAiBgNVBAsMG0dyZWVuIENlcnRpZmljYXRlIEF1
dGhvcml0eTEWMBQGA1UEAwwNR3JlZW4gUm9vdCBDQTAeFw0yMTA4MDkwOTA2MTNa
Fw0zMTA4MDkwOTA2MTNaMF8xCzAJBgNVBAYTAk5PMREwDwYDVQQKDAhHcmVlbiBB
UzEkMCIGA1UECwwbR3JlZW4gQ2VydGlmaWNhdGUgQXV0aG9yaXR5MRcwFQYDVQQD
DA5HcmVlbiBFbWFpbCBDQTCCASIwDQYJKoZIhvcNAQEBBQADggEPADCCAQoCggEB
AMjjJlmHb91Zp9CIGK3rrMUxKP3CEH26Q8eR4brHLK20X+JIDDLZ81z6TWLYjSWO
Zxykc3U2tIAn2FwU07flfXfy0OJqaoM5gS/bXCZ7Ihz8V/ktQlpY0Xx9ubbuHa43
aLMEvhxq29rtGSi4r9WGuaXRR7HeIJRhEuXXP50KB6WWePYWN6XpLDk4mfZn5TCt
EV/J28chJEOPyEb8WdX6EkzAMJkOlyDlECRUuty7DIBbGlPvUVaid4tS+TaKhK+d
tnnW2Re8OrIn/EX+uFmAvwheR8KdkO3vztB9WQ/fKOkec9Lq/tdMIbVmNZYY0vbK
88ddi7slRBtIq8HhiLMfnpECAwEAAaOB1DCB0TAOBgNVHQ8BAf8EBAMCAQYwEgYD
VR0TAQH/BAgwBgEB/wIBADAdBgNVHQ4EFgQU3rP1YNnAAeQ+JslajxTwMPi/sXww
HwYDVR0jBBgwFoAU5ZNEK1jc/tJJzpbvAs+J6rpE6J8wOgYIKwYBBQUHAQEELjAs
MCoGCCsGAQUFBzAChh5odHRwOi8vZ3JlZW4ubm8vY2Evcm9vdC1jYS5jZXIwLwYD
VR0fBCgwJjAkoCKgIIYeaHR0cDovL2dyZWVuLm5vL2NhL3Jvb3QtY2EuY3JsMA0G
CSqGSIb3DQEBBQUAA4IBAQAE9JOJshI2lkCA3JmFQ5P/HJQAuDSLpYL92hk5Fqzr
DdDx4ODRfZDokzSGk3OLnFOJ73/cc2X7/Vc1PDOs2YbAIKlRAo7F618b18NP/io+
sWEVGH0iNKzQ985NxyTIBX7SnDpVJOs9UmMyHz+kqwAzMcpnnu1GQKYDeNgWwkAg
VN8mwcgStE45kl398Sjpy8P4rCN3vwDnVBJHbmt9/07z+UZ+9iZOzumjgnSvb2ic
Rcqn/sZmvFmvzrPUI4cZzI/bdyU5hnnCiPwNJEb/YZGfRsOAGlwHXqRCsTIAEuJb
FLZrO6KyGEfDfhqFAP5+iDSJESoD4jtghfdAw0KiBAPx
-----END CERTIFICATE-----
Certificate:
    Data:
        Version: 3 (0x2)
        Serial Number: 1 (0x1)
        Signature Algorithm: sha1WithRSAEncryption
        Issuer: C=NO, O=Green AS, OU=Green Certificate Authority, CN=Green Root CA
        Validity
            Not Before: Aug  9 06:29:15 2021 GMT
            Not After : Dec 31 23:59:59 2030 GMT
        Subject: C=NO, O=Green AS, OU=Green Certificate Authority, CN=Green Root CA
        Subject Public Key Info:
            Public Key Algorithm: rsaEncryption
                RSA Public-Key: (2048 bit)
                Modulus:
                    00:99:d0:9b:00:bd:d1:91:4c:89:d3:37:f4:bd:cf:
                    38:a8:75:a0:f2:2e:19:76:a1:2e:bc:f1:3e:13:54:
                    64:ab:c2:91:7b:35:73:61:36:7b:e6:08:71:a3:30:
                    71:c1:aa:63:22:38:5b:78:4d:63:6c:9d:2c:56:c8:
                    30:27:7c:d6:9a:d2:68:37:1b:8a:48:1b:ab:c3:8a:
                    ad:76:ec:89:3c:a8:e7:69:46:b1:67:d9:c4:62:4e:
                    c4:0d:6e:12:22:d1:e2:bd:5a:f3:8f:51:41:b0:8f:
                    87:8c:d9:8e:f6:82:71:8f:54:eb:d9:c0:5d:d9:ae:
                    61:2f:78:81:33:1a:39:a3:da:4b:da:79:c2:42:e8:
                    e1:ad:fc:07:63:2a:24:e9:8b:02:f2:9a:e8:f1:c7:
                    5d:5c:dd:1c:d2:28:13:2e:dd:2d:ae:15:ce:23:9c:
                    ab:45:dd:11:cf:9b:80:a8:bc:0b:28:cd:c9:98:ed:
                    be:89:7a:da:67:32:43:2b:8b:da:7e:82:a6:6a:56:
                    b0:e7:36:89:c9:68:bb:b2:26:eb:49:24:c4:a7:0d:
                    b6:eb:82:0a:d6:70:e7:98:cb:3f:20:9c:e7:ee:6e:
                    ef:de:90:06:c5:99:a1:ff:59:22:76:6a:ed:ef:e2:
                    71:ad:f3:65:1f:8c:b6:2b:fe:8f:0f:6f:ae:7a:a3:
                    e0:0f
                Exponent: 65537 (0x10001)
        X509v3 extensions:
            X509v3 Key Usage: critical
                Certificate Sign, CRL Sign
            X509v3 Basic Constraints: critical
                CA:TRUE
            X509v3 Subject Key Identifier: 
                E5:93:44:2B:58:DC:FE:D2:49:CE:96:EF:02:CF:89:EA:BA:44:E8:9F
            X509v3 Authority Key Identifier: 
                keyid:E5:93:44:2B:58:DC:FE:D2:49:CE:96:EF:02:CF:89:EA:BA:44:E8:9F

    Signature Algorithm: sha1WithRSAEncryption
         61:8a:a3:83:e7:50:bb:c6:1c:0d:2d:e6:e5:bc:16:07:bd:40:
         63:35:49:f8:d3:eb:ff:ec:35:26:f3:56:3e:b4:de:be:2c:ec:
         4e:3e:57:e1:bc:48:fe:51:0e:63:de:7a:9c:bb:b7:77:25:68:
         57:d2:a0:65:59:03:de:93:bc:d9:b1:e2:8f:b3:da:69:7a:b3:
         09:c6:30:c5:35:76:32:ac:d0:d0:94:28:92:a0:a0:6f:21:f1:
         b0:71:da:ef:06:ff:30:76:7d:3b:c1:de:ae:af:0a:69:f5:5b:
         17:d9:17:3e:af:12:2e:43:79:38:70:c3:40:63:77:f3:ae:61:
         c1:90:6a:95:cb:31:8e:aa:f7:f0:09:3c:d8:92:54:b9:74:b1:
         f6:7f:2e:fe:20:da:98:5b:bb:09:30:99:7e:a6:44:7a:9f:27:
         48:18:fc:8a:e0:b9:5d:38:07:aa:85:ad:d1:25:32:38:e2:34:
         d6:60:45:0f:20:4f:cb:08:b6:5a:b3:2f:21:74:97:e5:21:e0:
         7c:cc:cb:2b:97:a6:84:2f:1e:93:ab:ad:cd:0e:24:85:37:0a:
         94:13:98:63:cf:84:13:ae:3c:83:7a:0c:31:a8:3b:4e:e4:7c:
         2f:51:37:94:a0:47:19:7b:47:c5:c0:b8:3b:1d:54:3e:4c:76:
         db:23:ac:e3
-----BEGIN CERTIFICATE-----
MIIDmjCCAoKgAwIBAgIBATANBgkqhkiG9w0BAQUFADBeMQswCQYDVQQGEwJOTzER
MA8GA1UECgwIR3JlZW4gQVMxJDAiBgNVBAsMG0dyZWVuIENlcnRpZmljYXRlIEF1
dGhvcml0eTEWMBQGA1UEAwwNR3JlZW4gUm9vdCBDQTAeFw0yMTA4MDkwNjI5MTVa
Fw0zMDEyMzEyMzU5NTlaMF4xCzAJBgNVBAYTAk5PMREwDwYDVQQKDAhHcmVlbiBB
UzEkMCIGA1UECwwbR3JlZW4gQ2VydGlmaWNhdGUgQXV0aG9yaXR5MRYwFAYDVQQD
DA1HcmVlbiBSb290IENBMIIBIjANBgkqhkiG9w0BAQEFAAOCAQ8AMIIBCgKCAQEA
mdCbAL3RkUyJ0zf0vc84qHWg8i4ZdqEuvPE+E1Rkq8KRezVzYTZ75ghxozBxwapj
IjhbeE1jbJ0sVsgwJ3zWmtJoNxuKSBurw4qtduyJPKjnaUaxZ9nEYk7EDW4SItHi
vVrzj1FBsI+HjNmO9oJxj1Tr2cBd2a5hL3iBMxo5o9pL2nnCQujhrfwHYyok6YsC
8pro8cddXN0c0igTLt0trhXOI5yrRd0Rz5uAqLwLKM3JmO2+iXraZzJDK4vafoKm
alaw5zaJyWi7sibrSSTEpw2264IK1nDnmMs/IJzn7m7v3pAGxZmh/1kidmrt7+Jx
rfNlH4y2K/6PD2+ueqPgDwIDAQABo2MwYTAOBgNVHQ8BAf8EBAMCAQYwDwYDVR0T
AQH/BAUwAwEB/zAdBgNVHQ4EFgQU5ZNEK1jc/tJJzpbvAs+J6rpE6J8wHwYDVR0j
BBgwFoAU5ZNEK1jc/tJJzpbvAs+J6rpE6J8wDQYJKoZIhvcNAQEFBQADggEBAGGK
o4PnULvGHA0t5uW8Fge9QGM1SfjT6//sNSbzVj603r4s7E4+V+G8SP5RDmPeepy7
t3claFfSoGVZA96TvNmx4o+z2ml6swnGMMU1djKs0NCUKJKgoG8h8bBx2u8G/zB2
fTvB3q6vCmn1WxfZFz6vEi5DeThww0Bjd/OuYcGQapXLMY6q9/AJPNiSVLl0sfZ/
Lv4g2phbuwkwmX6mRHqfJ0gY/IrguV04B6qFrdElMjjiNNZgRQ8gT8sItlqzLyF0
l+Uh4HzMyyuXpoQvHpOrrc0OJIU3CpQTmGPPhBOuPIN6DDGoO07kfC9RN5SgRxl7
R8XAuDsdVD5MdtsjrOM=
-----END CERTIFICATE-----
