Certificate:
    Data:
        Version: 3 (0x2)
        Serial Number: 1 (0x1)
        Signature Algorithm: sha1WithRSAEncryption
        Issuer: C=NO, O=Green AS, OU=Green Certificate Authority, CN=Green Root CA
        Validity
            Not Before: Aug  9 06:29:15 2021 GMT
            Not After : Dec 31 23:59:59 2030 GMT
        Subject: C=NO, O=Green AS, OU=Green Certificate Authority, CN=Green Root CA
        Subject Public Key Info:
            Public Key Algorithm: rsaEncryption
                RSA Public-Key: (2048 bit)
                Modulus:
                    00:99:d0:9b:00:bd:d1:91:4c:89:d3:37:f4:bd:cf:
                    38:a8:75:a0:f2:2e:19:76:a1:2e:bc:f1:3e:13:54:
                    64:ab:c2:91:7b:35:73:61:36:7b:e6:08:71:a3:30:
                    71:c1:aa:63:22:38:5b:78:4d:63:6c:9d:2c:56:c8:
                    30:27:7c:d6:9a:d2:68:37:1b:8a:48:1b:ab:c3:8a:
                    ad:76:ec:89:3c:a8:e7:69:46:b1:67:d9:c4:62:4e:
                    c4:0d:6e:12:22:d1:e2:bd:5a:f3:8f:51:41:b0:8f:
                    87:8c:d9:8e:f6:82:71:8f:54:eb:d9:c0:5d:d9:ae:
                    61:2f:78:81:33:1a:39:a3:da:4b:da:79:c2:42:e8:
                    e1:ad:fc:07:63:2a:24:e9:8b:02:f2:9a:e8:f1:c7:
                    5d:5c:dd:1c:d2:28:13:2e:dd:2d:ae:15:ce:23:9c:
                    ab:45:dd:11:cf:9b:80:a8:bc:0b:28:cd:c9:98:ed:
                    be:89:7a:da:67:32:43:2b:8b:da:7e:82:a6:6a:56:
                    b0:e7:36:89:c9:68:bb:b2:26:eb:49:24:c4:a7:0d:
                    b6:eb:82:0a:d6:70:e7:98:cb:3f:20:9c:e7:ee:6e:
                    ef:de:90:06:c5:99:a1:ff:59:22:76:6a:ed:ef:e2:
                    71:ad:f3:65:1f:8c:b6:2b:fe:8f:0f:6f:ae:7a:a3:
                    e0:0f
                Exponent: 65537 (0x10001)
        X509v3 extensions:
            X509v3 Key Usage: critical
                Certificate Sign, CRL Sign
            X509v3 Basic Constraints: critical
                CA:TRUE
            X509v3 Subject Key Identifier: 
                E5:93:44:2B:58:DC:FE:D2:49:CE:96:EF:02:CF:89:EA:BA:44:E8:9F
            X509v3 Authority Key Identifier: 
                keyid:E5:93:44:2B:58:DC:FE:D2:49:CE:96:EF:02:CF:89:EA:BA:44:E8:9F

    Signature Algorithm: sha1WithRSAEncryption
         61:8a:a3:83:e7:50:bb:c6:1c:0d:2d:e6:e5:bc:16:07:bd:40:
         63:35:49:f8:d3:eb:ff:ec:35:26:f3:56:3e:b4:de:be:2c:ec:
         4e:3e:57:e1:bc:48:fe:51:0e:63:de:7a:9c:bb:b7:77:25:68:
         57:d2:a0:65:59:03:de:93:bc:d9:b1:e2:8f:b3:da:69:7a:b3:
         09:c6:30:c5:35:76:32:ac:d0:d0:94:28:92:a0:a0:6f:21:f1:
         b0:71:da:ef:06:ff:30:76:7d:3b:c1:de:ae:af:0a:69:f5:5b:
         17:d9:17:3e:af:12:2e:43:79:38:70:c3:40:63:77:f3:ae:61:
         c1:90:6a:95:cb:31:8e:aa:f7:f0:09:3c:d8:92:54:b9:74:b1:
         f6:7f:2e:fe:20:da:98:5b:bb:09:30:99:7e:a6:44:7a:9f:27:
         48:18:fc:8a:e0:b9:5d:38:07:aa:85:ad:d1:25:32:38:e2:34:
         d6:60:45:0f:20:4f:cb:08:b6:5a:b3:2f:21:74:97:e5:21:e0:
         7c:cc:cb:2b:97:a6:84:2f:1e:93:ab:ad:cd:0e:24:85:37:0a:
         94:13:98:63:cf:84:13:ae:3c:83:7a:0c:31:a8:3b:4e:e4:7c:
         2f:51:37:94:a0:47:19:7b:47:c5:c0:b8:3b:1d:54:3e:4c:76:
         db:23:ac:e3
-----BEGIN CERTIFICATE-----
MIIDmjCCAoKgAwIBAgIBATANBgkqhkiG9w0BAQUFADBeMQswCQYDVQQGEwJOTzER
MA8GA1UECgwIR3JlZW4gQVMxJDAiBgNVBAsMG0dyZWVuIENlcnRpZmljYXRlIEF1
dGhvcml0eTEWMBQGA1UEAwwNR3JlZW4gUm9vdCBDQTAeFw0yMTA4MDkwNjI5MTVa
Fw0zMDEyMzEyMzU5NTlaMF4xCzAJBgNVBAYTAk5PMREwDwYDVQQKDAhHcmVlbiBB
UzEkMCIGA1UECwwbR3JlZW4gQ2VydGlmaWNhdGUgQXV0aG9yaXR5MRYwFAYDVQQD
DA1HcmVlbiBSb290IENBMIIBIjANBgkqhkiG9w0BAQEFAAOCAQ8AMIIBCgKCAQEA
mdCbAL3RkUyJ0zf0vc84qHWg8i4ZdqEuvPE+E1Rkq8KRezVzYTZ75ghxozBxwapj
IjhbeE1jbJ0sVsgwJ3zWmtJoNxuKSBurw4qtduyJPKjnaUaxZ9nEYk7EDW4SItHi
vVrzj1FBsI+HjNmO9oJxj1Tr2cBd2a5hL3iBMxo5o9pL2nnCQujhrfwHYyok6YsC
8pro8cddXN0c0igTLt0trhXOI5yrRd0Rz5uAqLwLKM3JmO2+iXraZzJDK4vafoKm
alaw5zaJyWi7sibrSSTEpw2264IK1nDnmMs/IJzn7m7v3pAGxZmh/1kidmrt7+Jx
rfNlH4y2K/6PD2+ueqPgDwIDAQABo2MwYTAOBgNVHQ8BAf8EBAMCAQYwDwYDVR0T
AQH/BAUwAwEB/zAdBgNVHQ4EFgQU5ZNEK1jc/tJJzpbvAs+J6rpE6J8wHwYDVR0j
BBgwFoAU5ZNEK1jc/tJJzpbvAs+J6rpE6J8wDQYJKoZIhvcNAQEFBQADggEBAGGK
o4PnULvGHA0t5uW8Fge9QGM1SfjT6//sNSbzVj603r4s7E4+V+G8SP5RDmPeepy7
t3claFfSoGVZA96TvNmx4o+z2ml6swnGMMU1djKs0NCUKJKgoG8h8bBx2u8G/zB2
fTvB3q6vCmn1WxfZFz6vEi5DeThww0Bjd/OuYcGQapXLMY6q9/AJPNiSVLl0sfZ/
Lv4g2phbuwkwmX6mRHqfJ0gY/IrguV04B6qFrdElMjjiNNZgRQ8gT8sItlqzLyF0
l+Uh4HzMyyuXpoQvHpOrrc0OJIU3CpQTmGPPhBOuPIN6DDGoO07kfC9RN5SgRxl7
R8XAuDsdVD5MdtsjrOM=
-----END CERTIFICATE-----
