Certificate:
    Data:
        Version: 3 (0x2)
        Serial Number: 1 (0x1)
        Signature Algorithm: sha1WithRSAEncryption
        Issuer: C=NO, O=Green AS, OU=Green Certificate Authority, CN=Green Email CA
        Validity
            Not Before: Aug  9 13:58:57 2021 GMT
            Not After : Aug  9 13:58:57 2023 GMT
        Subject: C=NO, O=Green AS, CN=Fred Flintstone
        Subject Public Key Info:
            Public Key Algorithm: rsaEncryption
                RSA Public-Key: (2048 bit)
                Modulus:
                    00:e7:f5:75:d5:61:e3:fc:41:d6:3e:c2:5d:0e:3b:
                    c3:01:88:70:42:fd:7e:91:e5:bf:0f:17:15:8d:09:
                    97:fd:67:eb:45:f8:05:a2:19:3e:4c:45:d6:7a:31:
                    e1:85:5b:55:a8:2b:f1:01:61:a7:99:7d:37:01:87:
                    e2:6a:e1:8c:db:12:20:8a:5c:5a:54:a4:57:ac:8b:
                    b8:99:13:df:d7:cd:88:91:be:6e:39:cb:20:61:f3:
                    f6:84:14:bc:d5:b3:be:55:7b:63:3f:a1:69:45:d4:
                    54:43:b2:e7:4e:d5:89:bb:d8:c0:13:da:95:e1:75:
                    c2:6b:16:5a:02:ad:c0:be:d3:23:65:b4:c1:04:d9:
                    af:8f:2b:89:be:b7:f5:a5:29:25:24:b6:6c:bb:74:
                    db:7b:ac:de:ed:b9:21:ef:c3:5e:b7:f3:8d:23:b5:
                    a8:f6:e1:33:bf:df:78:d5:74:38:be:70:de:e9:10:
                    b8:0b:89:31:e3:f0:61:9a:46:bb:c5:57:44:f1:e5:
                    75:4d:c0:dd:97:f8:4b:bf:28:dc:d7:4b:e4:29:11:
                    ec:ad:24:6a:5a:09:5b:f2:61:68:ed:05:71:1c:a7:
                    14:f2:f8:68:1f:ed:0a:64:87:f7:0b:3c:5e:bd:70:
                    60:3e:29:5f:72:97:ad:f9:20:ba:5d:9d:86:54:80:
                    87:b3
                Exponent: 65537 (0x10001)
        X509v3 extensions:
            X509v3 Key Usage: critical
                Digital Signature, Key Encipherment
            X509v3 Basic Constraints: 
                CA:FALSE
            X509v3 Extended Key Usage: 
                E-mail Protection, TLS Web Client Authentication, Any Extended Key Usage
            X509v3 Subject Key Identifier: 
                35:82:D4:B6:F2:CE:87:BC:F0:93:32:F9:F5:E3:68:78:DC:FB:33:FB
            X509v3 Authority Key Identifier: 
                keyid:DE:B3:F5:60:D9:C0:01:E4:3E:26:C9:5A:8F:14:F0:30:F8:BF:B1:7C

            Authority Information Access: 
                CA Issuers - URI:http://green.no/ca/email-ca.cer

            X509v3 CRL Distribution Points: 

                Full Name:
                  URI:http://green.no/ca/email-ca.crl

            X509v3 Subject Alternative Name: 
                email:fredflinstone@green.no
    Signature Algorithm: sha1WithRSAEncryption
         32:6d:5e:78:29:f8:7d:53:04:fa:0a:fa:c7:a6:4e:26:c9:bc:
         3a:f7:15:08:cd:2b:84:a2:a1:3c:11:0f:9c:73:38:c7:40:bf:
         e7:cc:dc:39:06:10:c5:fa:fe:30:b6:0a:a3:2b:38:c3:eb:32:
         52:14:8c:3f:a8:0e:85:15:54:89:a9:96:3f:03:1b:16:a4:32:
         9a:3d:a4:57:ac:b9:56:2a:c0:42:86:81:49:13:59:6b:99:4a:
         45:7b:3e:0b:da:70:93:04:a7:56:d3:e5:be:73:5b:e3:b2:f4:
         f0:e1:1f:b4:08:43:02:79:7c:62:03:70:24:8d:4a:4b:9e:63:
         da:66:5b:3f:30:ee:24:f6:1d:cc:5a:a2:e8:f9:f0:60:17:67:
         fd:83:60:18:84:b7:e3:df:ae:75:0b:ef:06:6a:17:44:c0:2b:
         8a:d8:05:f5:8b:e3:f4:f5:0a:8d:ca:c9:80:68:7e:51:11:fc:
         da:04:82:77:16:9e:eb:b1:e3:e5:89:14:f5:bf:4e:97:1b:77:
         92:bb:9e:b2:71:8f:fd:f9:a0:a3:77:da:3e:b1:08:29:a8:c2:
         14:eb:a8:49:94:3a:a5:f7:74:c0:7e:0a:a2:eb:6a:eb:a9:5d:
         db:5c:86:fb:fe:1d:06:f2:b2:88:d9:bd:fb:7d:02:8d:ad:5a:
         95:fd:b2:71
-----BEGIN CERTIFICATE-----
MIIELDCCAxSgAwIBAgIBATANBgkqhkiG9w0BAQUFADBfMQswCQYDVQQGEwJOTzER
MA8GA1UECgwIR3JlZW4gQVMxJDAiBgNVBAsMG0dyZWVuIENlcnRpZmljYXRlIEF1
dGhvcml0eTEXMBUGA1UEAwwOR3JlZW4gRW1haWwgQ0EwHhcNMjEwODA5MTM1ODU3
WhcNMjMwODA5MTM1ODU3WjA6MQswCQYDVQQGEwJOTzERMA8GA1UECgwIR3JlZW4g
QVMxGDAWBgNVBAMMD0ZyZWQgRmxpbnRzdG9uZTCCASIwDQYJKoZIhvcNAQEBBQAD
ggEPADCCAQoCggEBAOf1ddVh4/xB1j7CXQ47wwGIcEL9fpHlvw8XFY0Jl/1n60X4
BaIZPkxF1nox4YVbVagr8QFhp5l9NwGH4mrhjNsSIIpcWlSkV6yLuJkT39fNiJG+
bjnLIGHz9oQUvNWzvlV7Yz+haUXUVEOy507VibvYwBPaleF1wmsWWgKtwL7TI2W0
wQTZr48rib639aUpJSS2bLt023us3u25Ie/DXrfzjSO1qPbhM7/feNV0OL5w3ukQ
uAuJMePwYZpGu8VXRPHldU3A3Zf4S78o3NdL5CkR7K0kaloJW/JhaO0FcRynFPL4
aB/tCmSH9ws8Xr1wYD4pX3KXrfkgul2dhlSAh7MCAwEAAaOCARYwggESMA4GA1Ud
DwEB/wQEAwIFoDAJBgNVHRMEAjAAMCMGA1UdJQQcMBoGCCsGAQUFBwMEBggrBgEF
BQcDAgYEVR0lADAdBgNVHQ4EFgQUNYLUtvLOh7zwkzL59eNoeNz7M/swHwYDVR0j
BBgwFoAU3rP1YNnAAeQ+JslajxTwMPi/sXwwOwYIKwYBBQUHAQEELzAtMCsGCCsG
AQUFBzAChh9odHRwOi8vZ3JlZW4ubm8vY2EvZW1haWwtY2EuY2VyMDAGA1UdHwQp
MCcwJaAjoCGGH2h0dHA6Ly9ncmVlbi5uby9jYS9lbWFpbC1jYS5jcmwwIQYDVR0R
BBowGIEWZnJlZGZsaW5zdG9uZUBncmVlbi5ubzANBgkqhkiG9w0BAQUFAAOCAQEA
Mm1eeCn4fVME+gr6x6ZOJsm8OvcVCM0rhKKhPBEPnHM4x0C/58zcOQYQxfr+MLYK
oys4w+syUhSMP6gOhRVUiamWPwMbFqQymj2kV6y5VirAQoaBSRNZa5lKRXs+C9pw
kwSnVtPlvnNb47L08OEftAhDAnl8YgNwJI1KS55j2mZbPzDuJPYdzFqi6PnwYBdn
/YNgGIS349+udQvvBmoXRMAritgF9Yvj9PUKjcrJgGh+URH82gSCdxae67Hj5YkU
9b9Olxt3kruesnGP/fmgo3faPrEIKajCFOuoSZQ6pfd0wH4Koutq66ld21yG+/4d
BvKyiNm9+30Cja1alf2ycQ==
-----END CERTIFICATE-----
