Certificate:
    Data:
        Version: 3 (0x2)
        Serial Number: 2 (0x2)
        Signature Algorithm: sha1WithRSAEncryption
        Issuer: C=NO, O=Green AS, OU=Green Certificate Authority, CN=Green Email CA
        Validity
            Not Before: Aug  9 14:10:41 2021 GMT
            Not After : Aug  9 14:10:41 2023 GMT
        Subject: C=NO, O=Green AS, CN=Tom Zebzec
        Subject Public Key Info:
            Public Key Algorithm: rsaEncryption
                RSA Public-Key: (2048 bit)
                Modulus:
                    00:a0:20:cc:34:d7:23:99:29:db:c0:0c:61:6c:75:
                    95:7b:c6:cd:d3:3d:19:26:3d:56:5b:4c:1b:9f:85:
                    ec:71:41:b9:4c:2d:74:5a:7d:7d:da:5c:d5:30:b3:
                    52:39:e0:81:62:b8:cb:4c:16:d8:12:34:e6:52:7c:
                    73:86:39:42:2a:b3:7f:84:eb:03:22:bd:2e:18:c6:
                    59:2f:09:ca:2e:03:1d:e0:3c:82:1e:54:fb:7f:51:
                    ba:ba:b6:dc:6f:c2:0a:c2:ea:f1:5a:53:db:ab:14:
                    e3:cc:2f:7e:83:96:31:c4:ae:e5:65:ab:fa:de:04:
                    3c:9d:58:c5:7f:19:8a:9a:19:2e:cc:23:97:01:22:
                    b0:ba:bb:7d:a0:79:0c:15:e2:f6:61:75:d2:9d:b3:
                    1b:53:5c:27:dd:5b:0f:c8:de:8e:81:a2:04:38:20:
                    76:42:56:92:40:b0:c6:e6:83:9d:31:a0:56:bc:0b:
                    ee:02:38:0d:6e:d4:26:84:c0:9d:b2:6f:8e:f4:fa:
                    27:5f:b5:8a:bc:49:a5:71:a4:b7:aa:d1:eb:cf:9c:
                    69:51:ce:de:0f:a6:d9:c7:7a:fb:a8:87:a7:c0:e6:
                    46:cf:da:e7:7c:64:1b:fc:56:8e:b0:4f:41:e8:b1:
                    7a:34:56:9a:4a:50:47:ac:c1:31:2c:81:06:4b:fb:
                    cc:5b
                Exponent: 65537 (0x10001)
        X509v3 extensions:
            X509v3 Key Usage: critical
                Digital Signature, Key Encipherment
            X509v3 Basic Constraints: 
                CA:FALSE
            X509v3 Extended Key Usage: 
                E-mail Protection, TLS Web Client Authentication, Any Extended Key Usage
            X509v3 Subject Key Identifier: 
                1C:AB:4E:AC:53:56:0B:81:6C:03:DD:34:66:53:87:A2:9A:D3:B0:E8
            X509v3 Authority Key Identifier: 
                keyid:DE:B3:F5:60:D9:C0:01:E4:3E:26:C9:5A:8F:14:F0:30:F8:BF:B1:7C

            Authority Information Access: 
                CA Issuers - URI:http://green.no/ca/email-ca.cer

            X509v3 CRL Distribution Points: 

                Full Name:
                  URI:http://green.no/ca/email-ca.crl

            X509v3 Subject Alternative Name: 
                email:tomzebzec@green.no
    Signature Algorithm: sha1WithRSAEncryption
         6d:24:1f:07:14:ef:7c:05:a9:49:62:86:48:9f:61:0d:6a:fc:
         69:7a:4a:d3:bd:5d:7c:0a:6f:ed:ba:82:e3:b4:a7:a1:5f:98:
         75:c8:d8:d4:4d:84:c1:4e:85:3a:88:aa:1f:f9:65:ed:27:49:
         97:59:45:87:f1:ba:0e:a1:c4:08:66:39:68:a5:36:d8:b6:4d:
         84:62:73:2a:f1:73:8f:5a:cf:fb:0f:0e:85:33:da:98:ed:ef:
         79:df:3a:e7:05:76:d7:4c:d4:e8:fe:54:7a:4d:e6:8b:34:69:
         be:c5:7b:8a:46:7c:33:fa:e8:6d:2d:4a:12:0c:0d:06:08:30:
         f5:4b:28:e9:9a:5f:c4:9a:e1:83:3d:38:fc:b3:c1:d3:bc:90:
         8d:c0:1d:27:fa:0b:f2:ff:fa:5a:bb:15:d3:56:94:a7:60:0b:
         2c:78:50:61:ae:de:ed:0a:54:b6:2d:b0:55:9f:2a:bc:e6:8e:
         41:0f:ce:ff:56:17:6b:ab:8b:7c:79:31:b9:cf:8a:84:c2:ec:
         2a:4b:3a:bb:12:8d:97:34:6a:8e:59:f0:bf:36:0c:16:99:ab:
         a1:b5:84:9b:ed:c5:2e:9e:97:b1:54:ad:08:53:4c:61:53:57:
         12:da:ba:fb:ce:18:ba:07:6a:3b:fe:4d:25:5c:91:a6:54:44:
         4d:4f:8d:44
-----BEGIN CERTIFICATE-----
MIIEIzCCAwugAwIBAgIBAjANBgkqhkiG9w0BAQUFADBfMQswCQYDVQQGEwJOTzER
MA8GA1UECgwIR3JlZW4gQVMxJDAiBgNVBAsMG0dyZWVuIENlcnRpZmljYXRlIEF1
dGhvcml0eTEXMBUGA1UEAwwOR3JlZW4gRW1haWwgQ0EwHhcNMjEwODA5MTQxMDQx
WhcNMjMwODA5MTQxMDQxWjA1MQswCQYDVQQGEwJOTzERMA8GA1UECgwIR3JlZW4g
QVMxEzARBgNVBAMMClRvbSBaZWJ6ZWMwggEiMA0GCSqGSIb3DQEBAQUAA4IBDwAw
ggEKAoIBAQCgIMw01yOZKdvADGFsdZV7xs3TPRkmPVZbTBufhexxQblMLXRafX3a
XNUws1I54IFiuMtMFtgSNOZSfHOGOUIqs3+E6wMivS4YxlkvCcouAx3gPIIeVPt/
Ubq6ttxvwgrC6vFaU9urFOPML36DljHEruVlq/reBDydWMV/GYqaGS7MI5cBIrC6
u32geQwV4vZhddKdsxtTXCfdWw/I3o6BogQ4IHZCVpJAsMbmg50xoFa8C+4COA1u
1CaEwJ2yb470+idftYq8SaVxpLeq0evPnGlRzt4PptnHevuoh6fA5kbP2ud8ZBv8
Vo6wT0HosXo0VppKUEeswTEsgQZL+8xbAgMBAAGjggESMIIBDjAOBgNVHQ8BAf8E
BAMCBaAwCQYDVR0TBAIwADAjBgNVHSUEHDAaBggrBgEFBQcDBAYIKwYBBQUHAwIG
BFUdJQAwHQYDVR0OBBYEFByrTqxTVguBbAPdNGZTh6Ka07DoMB8GA1UdIwQYMBaA
FN6z9WDZwAHkPibJWo8U8DD4v7F8MDsGCCsGAQUFBwEBBC8wLTArBggrBgEFBQcw
AoYfaHR0cDovL2dyZWVuLm5vL2NhL2VtYWlsLWNhLmNlcjAwBgNVHR8EKTAnMCWg
I6Ahhh9odHRwOi8vZ3JlZW4ubm8vY2EvZW1haWwtY2EuY3JsMB0GA1UdEQQWMBSB
EnRvbXplYnplY0BncmVlbi5ubzANBgkqhkiG9w0BAQUFAAOCAQEAbSQfBxTvfAWp
SWKGSJ9hDWr8aXpK071dfApv7bqC47SnoV+YdcjY1E2EwU6FOoiqH/ll7SdJl1lF
h/G6DqHECGY5aKU22LZNhGJzKvFzj1rP+w8OhTPamO3ved865wV210zU6P5Uek3m
izRpvsV7ikZ8M/robS1KEgwNBggw9Uso6ZpfxJrhgz04/LPB07yQjcAdJ/oL8v/6
WrsV01aUp2ALLHhQYa7e7QpUti2wVZ8qvOaOQQ/O/1YXa6uLfHkxuc+KhMLsKks6
uxKNlzRqjlnwvzYMFpmrobWEm+3FLp6XsVStCFNMYVNXEtq6+84YugdqO/5NJVyR
plRETU+NRA==
-----END CERTIFICATE-----
