Certificate:
    Data:
        Version: 3 (0x2)
        Serial Number: 2 (0x2)
        Signature Algorithm: sha1WithRSAEncryption
        Issuer: DC=org, DC=simple, O=Simple Inc, OU=Simple Signing CA, CN=Simple Signing CA
        Validity
            Not Before: Jul 26 08:44:25 2021 GMT
            Not After : Jul 26 08:44:25 2023 GMT
        Subject: DC=org, DC=simple, O=Simple Inc, OU=Simple WWW, CN=www.simple.org
        Subject Public Key Info:
            Public Key Algorithm: rsaEncryption
                RSA Public-Key: (2048 bit)
                Modulus:
                    00:b6:1b:dd:39:39:2a:ae:d9:26:65:50:9f:14:5d:
                    e7:8b:78:4f:66:ba:ba:ad:d6:22:a3:f8:65:a8:e5:
                    eb:aa:f0:cb:54:41:60:41:2c:95:3f:3d:d0:b2:24:
                    5a:07:65:e6:60:fa:40:53:99:a8:9a:76:81:41:ad:
                    9f:d2:d7:63:70:04:18:76:12:fe:5d:71:7a:0c:25:
                    11:30:f4:41:da:8e:56:cf:97:94:27:d1:9c:82:95:
                    25:43:92:0e:c8:55:2a:81:f3:3b:bf:ae:00:b8:66:
                    2c:b9:ad:3d:d9:1d:8a:ed:c2:b6:53:a2:0c:61:2a:
                    72:03:95:c2:85:3b:bc:e0:af:0f:bf:00:f4:80:7a:
                    4b:ec:73:ae:39:1a:5b:b4:8a:f9:5d:b3:3f:b2:8e:
                    b6:be:ee:1a:e9:b6:14:0f:6e:90:a6:53:aa:45:e4:
                    74:b3:be:0e:0c:e5:2b:f6:a9:a7:86:79:ad:9b:aa:
                    a4:ef:23:65:e2:5c:e7:9e:cb:de:98:08:be:9b:77:
                    d1:7b:5f:45:62:45:4e:f2:c1:cb:96:16:d4:a1:72:
                    2b:5d:0b:67:c4:73:a6:a9:43:52:b4:e0:78:b9:3d:
                    3c:eb:68:27:9f:3a:c1:e6:31:24:dd:4d:d5:b2:e1:
                    bc:e8:72:fb:40:55:b8:ff:06:43:0d:ff:1b:20:23:
                    64:c7
                Exponent: 65537 (0x10001)
        X509v3 extensions:
            X509v3 Key Usage: critical
                Digital Signature, Key Encipherment
            X509v3 Basic Constraints: 
                CA:FALSE
            X509v3 Extended Key Usage: 
                TLS Web Server Authentication, TLS Web Client Authentication
            X509v3 Subject Key Identifier: 
                9A:10:39:A6:26:7A:D3:98:8D:C8:CF:8D:42:39:30:DF:05:79:21:9F
            X509v3 Authority Key Identifier: 
                keyid:CA:9C:0C:2A:02:F2:5E:6B:E4:AE:11:64:D2:CF:BD:D7:2B:A5:52:5B

            X509v3 Subject Alternative Name: 
                DNS:yourdomain.tld
    Signature Algorithm: sha1WithRSAEncryption
         5b:99:92:07:af:21:27:d1:eb:ee:1e:6c:81:36:94:b3:01:d5:
         87:68:81:20:a0:23:66:50:c8:fb:0c:e1:be:4b:8b:5f:0a:a1:
         aa:a8:d0:7a:ae:04:9a:62:30:9d:65:71:05:53:e8:d7:5b:88:
         98:99:b2:b6:b9:c3:0b:95:3d:3b:ae:bf:aa:32:09:5e:94:92:
         e6:6c:9d:08:eb:26:59:f8:c9:8c:f3:ae:88:54:ee:35:30:66:
         b4:31:54:6a:9d:5d:17:46:66:1c:7d:91:cb:3f:00:3d:24:ed:
         c9:85:60:84:be:08:cd:16:43:b2:a0:9b:36:ae:7b:e0:6a:d2:
         87:68:a0:6e:63:a0:ac:f1:c4:ff:79:7f:b1:84:e4:5e:ca:51:
         5b:e9:f1:09:b2:9b:a5:3d:11:e4:81:47:6d:cd:1c:f4:21:17:
         e6:21:5e:33:7e:e8:7b:fb:6c:a7:09:ee:ed:e5:57:16:ca:76:
         89:1e:b5:dd:6b:a1:fa:8c:bc:41:ee:50:38:6e:72:1d:a3:81:
         0e:64:09:f4:9c:f0:ec:40:47:1b:9b:5e:58:0c:34:ca:5d:c0:
         96:52:bb:cf:6e:40:3a:dd:43:ce:c3:17:cb:5b:3f:c7:c9:04:
         aa:2e:31:b5:34:a8:6f:02:0e:1c:28:cd:58:0f:19:c9:45:35:
         cb:7a:87:15
-----BEGIN CERTIFICATE-----
MIID/jCCAuagAwIBAgIBAjANBgkqhkiG9w0BAQUFADB6MRMwEQYKCZImiZPyLGQB
GRYDb3JnMRYwFAYKCZImiZPyLGQBGRYGc2ltcGxlMRMwEQYDVQQKDApTaW1wbGUg
SW5jMRowGAYDVQQLDBFTaW1wbGUgU2lnbmluZyBDQTEaMBgGA1UEAwwRU2ltcGxl
IFNpZ25pbmcgQ0EwHhcNMjEwNzI2MDg0NDI1WhcNMjMwNzI2MDg0NDI1WjBwMRMw
EQYKCZImiZPyLGQBGRYDb3JnMRYwFAYKCZImiZPyLGQBGRYGc2ltcGxlMRMwEQYD
VQQKDApTaW1wbGUgSW5jMRMwEQYDVQQLDApTaW1wbGUgV1dXMRcwFQYDVQQDDA53
d3cuc2ltcGxlLm9yZzCCASIwDQYJKoZIhvcNAQEBBQADggEPADCCAQoCggEBALYb
3Tk5Kq7ZJmVQnxRd54t4T2a6uq3WIqP4Zajl66rwy1RBYEEslT890LIkWgdl5mD6
QFOZqJp2gUGtn9LXY3AEGHYS/l1xegwlETD0QdqOVs+XlCfRnIKVJUOSDshVKoHz
O7+uALhmLLmtPdkdiu3CtlOiDGEqcgOVwoU7vOCvD78A9IB6S+xzrjkaW7SK+V2z
P7KOtr7uGum2FA9ukKZTqkXkdLO+DgzlK/app4Z5rZuqpO8jZeJc557L3pgIvpt3
0XtfRWJFTvLBy5YW1KFyK10LZ8RzpqlDUrTgeLk9POtoJ586weYxJN1N1bLhvOhy
+0BVuP8GQw3/GyAjZMcCAwEAAaOBmDCBlTAOBgNVHQ8BAf8EBAMCBaAwCQYDVR0T
BAIwADAdBgNVHSUEFjAUBggrBgEFBQcDAQYIKwYBBQUHAwIwHQYDVR0OBBYEFJoQ
OaYmetOYjcjPjUI5MN8FeSGfMB8GA1UdIwQYMBaAFMqcDCoC8l5r5K4RZNLPvdcr
pVJbMBkGA1UdEQQSMBCCDnlvdXJkb21haW4udGxkMA0GCSqGSIb3DQEBBQUAA4IB
AQBbmZIHryEn0evuHmyBNpSzAdWHaIEgoCNmUMj7DOG+S4tfCqGqqNB6rgSaYjCd
ZXEFU+jXW4iYmbK2ucMLlT07rr+qMglelJLmbJ0I6yZZ+MmM866IVO41MGa0MVRq
nV0XRmYcfZHLPwA9JO3JhWCEvgjNFkOyoJs2rnvgatKHaKBuY6Cs8cT/eX+xhORe
ylFb6fEJspulPRHkgUdtzRz0IRfmIV4zfuh7+2ynCe7t5VcWynaJHrXda6H6jLxB
7lA4bnIdo4EOZAn0nPDsQEcbm15YDDTKXcCWUrvPbkA63UPOwxfLWz/HyQSqLjG1
NKhvAg4cKM1YDxnJRTXLeocV
-----END CERTIFICATE-----
