Certificate:
    Data:
        Version: 3 (0x2)
        Serial Number: 3 (0x3)
        Signature Algorithm: sha1WithRSAEncryption
        Issuer: C=NO, O=Green AS, OU=Green Certificate Authority, CN=Green Root CA
        Validity
            Not Before: Aug  9 13:35:28 2021 GMT
            Not After : Aug  9 13:35:28 2031 GMT
        Subject: C=NO, O=Green AS, OU=Green Certificate Authority, CN=Green TLS CA
        Subject Public Key Info:
            Public Key Algorithm: rsaEncryption
                RSA Public-Key: (2048 bit)
                Modulus:
                    00:a8:70:3c:69:ce:b9:7a:0f:bb:2b:16:fd:39:f5:
                    bc:86:84:d1:63:e1:af:21:18:9c:14:b9:12:b5:ae:
                    c6:73:d8:d5:49:7a:f4:c1:fa:6e:bc:07:36:87:62:
                    12:09:2c:e1:31:3a:97:94:d3:f0:89:88:b1:f4:62:
                    58:4f:84:e8:5c:88:a3:f3:53:16:f7:91:89:43:63:
                    8b:e4:26:59:cd:30:09:0a:b6:aa:7b:4b:46:8e:bf:
                    25:02:8b:9d:9c:85:d7:99:b6:5f:9c:68:21:79:fa:
                    59:c1:5a:4b:59:f1:d8:ac:29:a8:33:31:9f:ea:68:
                    e0:4e:d0:fe:28:40:01:26:1b:b5:34:04:1c:3a:65:
                    c7:12:0b:85:e5:73:2e:b1:ef:91:33:c0:f3:4b:0b:
                    ec:ce:3f:44:fb:63:3e:d7:5b:7b:e3:c9:73:61:6a:
                    d6:ac:4f:07:74:f3:42:74:07:6b:84:d4:43:82:45:
                    15:89:6e:09:41:89:c4:e3:10:95:5f:d9:ae:19:d4:
                    ee:3b:aa:be:a0:2e:b6:c1:64:6c:44:b2:d1:0e:3e:
                    c3:04:b1:72:fe:13:56:05:38:53:78:2a:d8:63:ff:
                    76:d3:2a:26:72:27:5e:9b:7c:15:91:b2:e5:92:64:
                    98:64:b4:dc:c8:33:92:55:76:c1:93:a7:ae:f3:ab:
                    05:59
                Exponent: 65537 (0x10001)
        X509v3 extensions:
            X509v3 Key Usage: critical
                Certificate Sign, CRL Sign
            X509v3 Basic Constraints: critical
                CA:TRUE, pathlen:0
            X509v3 Subject Key Identifier: 
                CC:D4:28:71:54:EB:64:4C:80:BA:C3:E9:99:79:66:57:00:0D:28:7A
            X509v3 Authority Key Identifier: 
                keyid:E5:93:44:2B:58:DC:FE:D2:49:CE:96:EF:02:CF:89:EA:BA:44:E8:9F

            Authority Information Access: 
                CA Issuers - URI:http://green.no/ca/root-ca.cer

            X509v3 CRL Distribution Points: 

                Full Name:
                  URI:http://green.no/ca/root-ca.crl

    Signature Algorithm: sha1WithRSAEncryption
         4e:d7:20:4d:8f:2c:60:8a:dc:48:c4:c9:e5:91:e1:c5:71:af:
         29:1c:71:fd:a4:22:54:0b:9e:52:95:c3:c1:d7:81:f8:f6:ed:
         06:78:72:bc:e6:cd:2d:98:33:4d:a1:70:26:93:44:00:0d:47:
         47:ed:3f:a6:67:f6:44:fd:39:d7:18:6f:17:a0:5f:7b:a5:de:
         48:23:de:4a:97:6d:00:8e:89:64:ed:e5:af:f3:06:31:bc:d3:
         72:ca:1a:71:d2:6a:e6:19:69:fa:8c:d8:81:f7:5d:bd:55:a0:
         88:f0:ed:b7:2a:7a:3e:0a:97:97:e1:d0:8f:1d:f2:62:9e:50:
         5c:43:8c:6c:da:4a:3d:8d:ed:c6:56:f4:f2:e9:da:f1:d7:c6:
         49:2d:a3:cb:6f:e9:72:24:a4:c8:a9:73:45:0c:78:b0:43:9d:
         07:ac:8d:90:cc:1e:a8:a9:9e:e6:8b:37:0b:e4:ea:5c:59:f1:
         55:29:ff:dc:11:b7:3e:27:5d:c2:0a:b1:68:d4:51:71:34:f0:
         b8:c6:67:f4:6c:5b:ce:0b:6b:c6:e1:e6:c0:2c:12:c2:42:e4:
         76:db:2d:0c:cd:d6:46:cc:e7:43:1e:dd:20:73:43:33:44:8f:
         19:ec:94:cb:eb:ca:3c:ad:36:84:e3:fb:2e:d5:e9:9e:45:c6:
         7e:5a:75:81
-----BEGIN CERTIFICATE-----
MIIECzCCAvOgAwIBAgIBAzANBgkqhkiG9w0BAQUFADBeMQswCQYDVQQGEwJOTzER
MA8GA1UECgwIR3JlZW4gQVMxJDAiBgNVBAsMG0dyZWVuIENlcnRpZmljYXRlIEF1
dGhvcml0eTEWMBQGA1UEAwwNR3JlZW4gUm9vdCBDQTAeFw0yMTA4MDkxMzM1Mjha
Fw0zMTA4MDkxMzM1MjhaMF0xCzAJBgNVBAYTAk5PMREwDwYDVQQKDAhHcmVlbiBB
UzEkMCIGA1UECwwbR3JlZW4gQ2VydGlmaWNhdGUgQXV0aG9yaXR5MRUwEwYDVQQD
DAxHcmVlbiBUTFMgQ0EwggEiMA0GCSqGSIb3DQEBAQUAA4IBDwAwggEKAoIBAQCo
cDxpzrl6D7srFv059byGhNFj4a8hGJwUuRK1rsZz2NVJevTB+m68BzaHYhIJLOEx
OpeU0/CJiLH0YlhPhOhciKPzUxb3kYlDY4vkJlnNMAkKtqp7S0aOvyUCi52chdeZ
tl+caCF5+lnBWktZ8disKagzMZ/qaOBO0P4oQAEmG7U0BBw6ZccSC4Xlcy6x75Ez
wPNLC+zOP0T7Yz7XW3vjyXNhatasTwd080J0B2uE1EOCRRWJbglBicTjEJVf2a4Z
1O47qr6gLrbBZGxEstEOPsMEsXL+E1YFOFN4Kthj/3bTKiZyJ16bfBWRsuWSZJhk
tNzIM5JVdsGTp67zqwVZAgMBAAGjgdQwgdEwDgYDVR0PAQH/BAQDAgEGMBIGA1Ud
EwEB/wQIMAYBAf8CAQAwHQYDVR0OBBYEFMzUKHFU62RMgLrD6Zl5ZlcADSh6MB8G
A1UdIwQYMBaAFOWTRCtY3P7SSc6W7wLPieq6ROifMDoGCCsGAQUFBwEBBC4wLDAq
BggrBgEFBQcwAoYeaHR0cDovL2dyZWVuLm5vL2NhL3Jvb3QtY2EuY2VyMC8GA1Ud
HwQoMCYwJKAioCCGHmh0dHA6Ly9ncmVlbi5uby9jYS9yb290LWNhLmNybDANBgkq
hkiG9w0BAQUFAAOCAQEATtcgTY8sYIrcSMTJ5ZHhxXGvKRxx/aQiVAueUpXDwdeB
+PbtBnhyvObNLZgzTaFwJpNEAA1HR+0/pmf2RP051xhvF6Bfe6XeSCPeSpdtAI6J
ZO3lr/MGMbzTcsoacdJq5hlp+ozYgfddvVWgiPDttyp6PgqXl+HQjx3yYp5QXEOM
bNpKPY3txlb08una8dfGSS2jy2/pciSkyKlzRQx4sEOdB6yNkMweqKme5os3C+Tq
XFnxVSn/3BG3PiddwgqxaNRRcTTwuMZn9GxbzgtrxuHmwCwSwkLkdtstDM3WRszn
Qx7dIHNDM0SPGeyUy+vKPK02hOP7LtXpnkXGflp1gQ==
-----END CERTIFICATE-----
