Certificate:
    Data:
        Version: 3 (0x2)
        Serial Number: 4 (0x4)
        Signature Algorithm: sha1WithRSAEncryption
        Issuer: C=NO, O=Green AS, OU=Green Certificate Authority, CN=Green Root CA
        Validity
            Not Before: Aug  9 13:49:52 2021 GMT
            Not After : Aug  9 13:49:52 2031 GMT
        Subject: C=NO, O=Green AS, OU=Green Certificate Authority, CN=Green Software CA
        Subject Public Key Info:
            Public Key Algorithm: rsaEncryption
                RSA Public-Key: (2048 bit)
                Modulus:
                    00:c7:b0:a7:5e:fc:c5:50:fa:0b:98:ba:cb:b9:55:
                    76:e7:ff:db:15:d7:20:11:23:ff:75:6f:6b:02:c8:
                    c9:9e:7a:9a:23:8b:44:d7:d8:96:28:ff:ec:2f:1f:
                    e3:c9:e1:18:0b:1a:4e:fe:11:31:95:12:c1:68:de:
                    ca:aa:da:05:3b:68:07:65:bf:df:69:c2:2f:01:ba:
                    fe:c0:5b:03:17:63:50:ef:6f:21:d8:b0:f6:98:81:
                    56:1c:21:e3:6e:74:82:4d:06:9d:66:bc:ec:41:ab:
                    37:dd:a5:7e:a0:c6:d6:41:09:ff:1f:6d:5b:1e:31:
                    b2:cb:5c:4e:2d:5c:69:36:90:68:97:4f:10:fb:e9:
                    89:ee:94:97:de:b6:43:78:f5:85:06:86:f6:39:bb:
                    85:e5:4a:d2:0f:02:15:5f:eb:14:33:dd:23:a9:8b:
                    6b:81:7e:60:f2:9e:75:bc:82:6e:a0:01:18:c9:44:
                    88:f0:df:76:81:0b:01:2e:76:ac:32:25:d4:82:23:
                    57:df:a6:0d:d4:b1:98:e1:91:af:09:80:9f:6b:19:
                    2e:8d:0d:f7:c5:9f:c4:e6:97:1d:11:ea:89:ec:8f:
                    00:d5:a7:a3:ca:26:5b:12:2b:35:5c:c7:cb:5a:fa:
                    4a:21:46:a4:c8:cd:2b:f2:88:6d:0f:3c:9e:84:89:
                    05:81
                Exponent: 65537 (0x10001)
        X509v3 extensions:
            X509v3 Key Usage: critical
                Certificate Sign, CRL Sign
            X509v3 Basic Constraints: critical
                CA:TRUE, pathlen:0
            X509v3 Subject Key Identifier: 
                A3:FF:E1:92:DB:B0:CA:17:92:AB:63:05:0E:EA:45:88:40:55:79:29
            X509v3 Authority Key Identifier: 
                keyid:E5:93:44:2B:58:DC:FE:D2:49:CE:96:EF:02:CF:89:EA:BA:44:E8:9F

            Authority Information Access: 
                CA Issuers - URI:http://green.no/ca/root-ca.cer

            X509v3 CRL Distribution Points: 

                Full Name:
                  URI:http://green.no/ca/root-ca.crl

    Signature Algorithm: sha1WithRSAEncryption
         28:ed:ff:51:34:70:67:e0:42:ea:f9:a0:f4:23:a9:46:ac:83:
         34:eb:1a:0a:7d:ac:a1:51:2a:a8:bf:56:d8:68:76:ce:5e:d7:
         6a:0d:51:e2:9a:47:88:1f:51:1e:8d:3a:16:dc:e9:c3:da:d3:
         0c:b4:ef:37:64:e8:77:f8:68:47:fe:6e:5e:0b:52:7f:4e:74:
         dd:c8:56:a5:bf:93:80:ce:bf:8f:15:09:8b:e5:c1:9c:87:a8:
         a4:b6:2f:d1:e8:08:b1:ac:f6:c6:9e:df:83:8c:2c:f3:5d:59:
         3b:6d:64:e5:a2:ec:79:17:8f:ea:37:46:c0:0a:3b:5e:64:c5:
         85:24:3b:f5:ad:2a:98:66:77:5c:8c:cb:25:6c:8c:47:57:02:
         b8:74:1f:68:a8:bd:33:12:8b:fa:39:2c:20:d5:27:0a:34:81:
         41:a0:98:83:f4:74:c8:1e:d4:5c:b2:f9:39:98:14:01:7d:e2:
         17:6e:03:ff:70:c6:d0:ea:65:25:21:a6:23:92:47:53:1c:20:
         af:da:6a:39:cf:f6:32:4f:cf:ae:0f:5f:dc:b5:5d:23:6d:2b:
         07:8b:bd:01:bf:e2:98:33:b9:1b:68:0b:6a:27:a0:b2:ad:5b:
         1e:37:7f:43:4b:d8:04:fb:e1:86:2a:2b:74:19:08:dd:b6:f6:
         b4:f4:07:aa
-----BEGIN CERTIFICATE-----
MIIEEDCCAvigAwIBAgIBBDANBgkqhkiG9w0BAQUFADBeMQswCQYDVQQGEwJOTzER
MA8GA1UECgwIR3JlZW4gQVMxJDAiBgNVBAsMG0dyZWVuIENlcnRpZmljYXRlIEF1
dGhvcml0eTEWMBQGA1UEAwwNR3JlZW4gUm9vdCBDQTAeFw0yMTA4MDkxMzQ5NTJa
Fw0zMTA4MDkxMzQ5NTJaMGIxCzAJBgNVBAYTAk5PMREwDwYDVQQKDAhHcmVlbiBB
UzEkMCIGA1UECwwbR3JlZW4gQ2VydGlmaWNhdGUgQXV0aG9yaXR5MRowGAYDVQQD
DBFHcmVlbiBTb2Z0d2FyZSBDQTCCASIwDQYJKoZIhvcNAQEBBQADggEPADCCAQoC
ggEBAMewp178xVD6C5i6y7lVduf/2xXXIBEj/3VvawLIyZ56miOLRNfYlij/7C8f
48nhGAsaTv4RMZUSwWjeyqraBTtoB2W/32nCLwG6/sBbAxdjUO9vIdiw9piBVhwh
4250gk0GnWa87EGrN92lfqDG1kEJ/x9tWx4xsstcTi1caTaQaJdPEPvpie6Ul962
Q3j1hQaG9jm7heVK0g8CFV/rFDPdI6mLa4F+YPKedbyCbqABGMlEiPDfdoELAS52
rDIl1IIjV9+mDdSxmOGRrwmAn2sZLo0N98WfxOaXHRHqieyPANWno8omWxIrNVzH
y1r6SiFGpMjNK/KIbQ88noSJBYECAwEAAaOB1DCB0TAOBgNVHQ8BAf8EBAMCAQYw
EgYDVR0TAQH/BAgwBgEB/wIBADAdBgNVHQ4EFgQUo//hktuwyheSq2MFDupFiEBV
eSkwHwYDVR0jBBgwFoAU5ZNEK1jc/tJJzpbvAs+J6rpE6J8wOgYIKwYBBQUHAQEE
LjAsMCoGCCsGAQUFBzAChh5odHRwOi8vZ3JlZW4ubm8vY2Evcm9vdC1jYS5jZXIw
LwYDVR0fBCgwJjAkoCKgIIYeaHR0cDovL2dyZWVuLm5vL2NhL3Jvb3QtY2EuY3Js
MA0GCSqGSIb3DQEBBQUAA4IBAQAo7f9RNHBn4ELq+aD0I6lGrIM06xoKfayhUSqo
v1bYaHbOXtdqDVHimkeIH1EejToW3OnD2tMMtO83ZOh3+GhH/m5eC1J/TnTdyFal
v5OAzr+PFQmL5cGch6ikti/R6AixrPbGnt+DjCzzXVk7bWTloux5F4/qN0bACjte
ZMWFJDv1rSqYZndcjMslbIxHVwK4dB9oqL0zEov6OSwg1ScKNIFBoJiD9HTIHtRc
svk5mBQBfeIXbgP/cMbQ6mUlIaYjkkdTHCCv2mo5z/YyT8+uD1/ctV0jbSsHi70B
v+KYM7kbaAtqJ6CyrVseN39DS9gE++GGKit0GQjdtva09Aeq
-----END CERTIFICATE-----
