Certificate:
    Data:
        Version: 3 (0x2)
        Serial Number: 2 (0x2)
        Signature Algorithm: sha1WithRSAEncryption
        Issuer: C=NO, O=Green AS, OU=Green Certificate Authority, CN=Green TLS CA
        Validity
            Not Before: Aug  9 14:51:27 2021 GMT
            Not After : Aug  9 14:51:27 2023 GMT
        Subject: C=NO, O=Telenor AS, OU=Support, CN=Barney Rubble
        Subject Public Key Info:
            Public Key Algorithm: rsaEncryption
                RSA Public-Key: (2048 bit)
                Modulus:
                    00:e4:80:d3:eb:73:07:51:f7:d6:7c:fb:d2:b8:67:
                    fc:29:2d:52:b8:e1:47:bb:5e:32:69:2a:d4:ef:72:
                    eb:c4:3a:5b:69:2c:71:0d:2b:8c:00:14:97:67:e4:
                    ef:c5:ae:94:8c:1f:98:8a:20:2b:b9:7c:9c:2b:c5:
                    6b:4e:0f:3e:b1:7f:12:e9:ea:85:2e:f1:1f:37:1a:
                    3e:79:97:5c:ee:0b:4e:a2:a5:b0:c0:48:c1:7b:e1:
                    ed:a9:6e:f2:97:df:2c:2b:b0:dd:00:77:7b:db:86:
                    00:5f:17:f4:24:19:65:5d:78:28:b2:a3:a8:28:77:
                    c8:57:ae:59:34:b3:8d:cc:31:da:c8:45:ca:38:ef:
                    5b:f3:cf:64:31:76:4e:cb:98:4d:26:1e:ad:c7:b4:
                    2e:0d:45:c3:8f:b9:4c:ea:c8:dc:3d:35:12:68:6a:
                    43:be:7f:4c:b1:28:cb:24:ee:cd:4e:e6:cb:e6:71:
                    27:be:9c:81:1b:6a:24:ad:95:e0:11:17:3b:e7:f7:
                    96:59:3f:1d:38:6d:64:d2:55:2b:2c:55:db:a3:cc:
                    ba:84:d8:55:b8:62:e1:e4:dc:68:98:b5:e6:39:ea:
                    49:ca:bb:4a:06:57:12:30:48:03:ff:5b:09:d1:21:
                    8d:f3:8e:ba:06:fa:23:b7:8d:89:b4:b6:f4:b5:22:
                    59:df
                Exponent: 65537 (0x10001)
        X509v3 extensions:
            X509v3 Key Usage: critical
                Digital Signature
            X509v3 Basic Constraints: 
                CA:FALSE
            X509v3 Extended Key Usage: 
                TLS Web Client Authentication
            X509v3 Subject Key Identifier: 
                F7:EE:B7:28:81:F0:96:06:7E:D1:54:A3:9F:40:14:69:DD:0A:76:60
            X509v3 Authority Key Identifier: 
                keyid:CC:D4:28:71:54:EB:64:4C:80:BA:C3:E9:99:79:66:57:00:0D:28:7A

            Authority Information Access: 
                CA Issuers - URI:http://green.no/ca/tls-ca.cer

            X509v3 CRL Distribution Points: 

                Full Name:
                  URI:http://green.no/ca/tls-ca.crl

            X509v3 Subject Alternative Name: 
                email:barneyrubble@telenor.no
    Signature Algorithm: sha1WithRSAEncryption
         45:01:06:11:34:b4:a0:74:b6:06:5c:34:78:5c:72:85:9d:fa:
         af:e0:3e:30:fd:91:8e:df:3c:f4:ec:b8:22:4a:ba:63:2b:93:
         1c:74:3d:2e:83:5e:c3:61:6d:fe:cf:db:d7:df:c9:32:c7:14:
         34:d6:52:1f:72:d1:22:2f:5f:be:f6:13:95:be:26:19:bb:53:
         d1:ed:5b:50:27:0b:0a:8d:94:51:f6:20:d9:65:28:c7:93:6a:
         dd:0c:fd:8b:75:60:89:8a:15:e9:97:1d:e4:39:fa:1d:06:c3:
         f0:64:3c:9d:c5:b3:fa:8a:af:5b:10:bb:19:48:0e:59:ad:b2:
         a4:01:06:75:85:65:22:5d:24:f5:ac:ea:99:0d:37:d4:c0:ca:
         09:ed:3e:80:9f:91:87:12:42:85:d0:6a:fb:34:49:4d:f6:aa:
         5b:67:25:2e:c0:1b:af:61:a4:06:44:28:73:5e:b6:ef:9b:c8:
         56:8e:d2:ea:77:a1:95:6e:de:81:28:c4:92:24:a3:20:c1:10:
         85:19:04:a6:60:1e:be:e2:82:bc:a3:04:37:ed:fb:fe:66:bc:
         32:09:65:b8:74:99:2a:74:48:fc:51:a5:f5:bf:e3:02:6e:38:
         b4:5c:55:31:dd:73:0b:2d:9a:78:a1:d0:c7:de:39:34:03:a2:
         cb:36:a6:3e
-----BEGIN CERTIFICATE-----
MIIEKDCCAxCgAwIBAgIBAjANBgkqhkiG9w0BAQUFADBdMQswCQYDVQQGEwJOTzER
MA8GA1UECgwIR3JlZW4gQVMxJDAiBgNVBAsMG0dyZWVuIENlcnRpZmljYXRlIEF1
dGhvcml0eTEVMBMGA1UEAwwMR3JlZW4gVExTIENBMB4XDTIxMDgwOTE0NTEyN1oX
DTIzMDgwOTE0NTEyN1owTDELMAkGA1UEBhMCTk8xEzARBgNVBAoMClRlbGVub3Ig
QVMxEDAOBgNVBAsMB1N1cHBvcnQxFjAUBgNVBAMMDUJhcm5leSBSdWJibGUwggEi
MA0GCSqGSIb3DQEBAQUAA4IBDwAwggEKAoIBAQDkgNPrcwdR99Z8+9K4Z/wpLVK4
4Ue7XjJpKtTvcuvEOltpLHENK4wAFJdn5O/FrpSMH5iKICu5fJwrxWtODz6xfxLp
6oUu8R83Gj55l1zuC06ipbDASMF74e2pbvKX3ywrsN0Ad3vbhgBfF/QkGWVdeCiy
o6god8hXrlk0s43MMdrIRco471vzz2Qxdk7LmE0mHq3HtC4NRcOPuUzqyNw9NRJo
akO+f0yxKMsk7s1O5svmcSe+nIEbaiStleARFzvn95ZZPx04bWTSVSssVdujzLqE
2FW4YuHk3GiYteY56knKu0oGVxIwSAP/WwnRIY3zjroG+iO3jYm0tvS1IlnfAgMB
AAGjggECMIH/MA4GA1UdDwEB/wQEAwIHgDAJBgNVHRMEAjAAMBMGA1UdJQQMMAoG
CCsGAQUFBwMCMB0GA1UdDgQWBBT37rcogfCWBn7RVKOfQBRp3Qp2YDAfBgNVHSME
GDAWgBTM1ChxVOtkTIC6w+mZeWZXAA0oejA5BggrBgEFBQcBAQQtMCswKQYIKwYB
BQUHMAKGHWh0dHA6Ly9ncmVlbi5uby9jYS90bHMtY2EuY2VyMC4GA1UdHwQnMCUw
I6AhoB+GHWh0dHA6Ly9ncmVlbi5uby9jYS90bHMtY2EuY3JsMCIGA1UdEQQbMBmB
F2Jhcm5leXJ1YmJsZUB0ZWxlbm9yLm5vMA0GCSqGSIb3DQEBBQUAA4IBAQBFAQYR
NLSgdLYGXDR4XHKFnfqv4D4w/ZGO3zz07LgiSrpjK5McdD0ug17DYW3+z9vX38ky
xxQ01lIfctEiL1++9hOVviYZu1PR7VtQJwsKjZRR9iDZZSjHk2rdDP2LdWCJihXp
lx3kOfodBsPwZDydxbP6iq9bELsZSA5ZrbKkAQZ1hWUiXST1rOqZDTfUwMoJ7T6A
n5GHEkKF0Gr7NElN9qpbZyUuwBuvYaQGRChzXrbvm8hWjtLqd6GVbt6BKMSSJKMg
wRCFGQSmYB6+4oK8owQ37fv+ZrwyCWW4dJkqdEj8UaX1v+MCbji0XFUx3XMLLZp4
odDH3jk0A6LLNqY+
-----END CERTIFICATE-----
