Certificate:
    Data:
        Version: 3 (0x2)
        Serial Number: 1 (0x1)
        Signature Algorithm: sha1WithRSAEncryption
        Issuer: C=NO, O=Green AS, OU=Green Certificate Authority, CN=Green TLS CA
        Validity
            Not Before: Aug  9 14:47:26 2021 GMT
            Not After : Aug  9 14:47:26 2023 GMT
        Subject: C=NO, O=Green AS, CN=www.green.no
        Subject Public Key Info:
            Public Key Algorithm: rsaEncryption
                RSA Public-Key: (2048 bit)
                Modulus:
                    00:c0:78:c7:81:56:7f:96:bb:b8:33:21:87:f7:4b:
                    fa:36:b6:30:69:e8:81:42:98:fc:6c:a6:6c:97:35:
                    ac:a1:c9:d7:44:ae:75:0d:09:96:4c:51:79:16:6f:
                    b9:63:8a:d5:9a:58:17:71:af:84:f2:97:dd:d8:0b:
                    71:8e:aa:c9:15:05:12:63:98:14:ad:2d:67:5b:c2:
                    bb:27:5b:c5:3b:39:e0:f7:71:ec:26:3a:f2:65:dd:
                    b7:91:11:01:b0:3c:66:86:fc:c7:98:26:74:1c:f0:
                    51:2f:d0:85:ef:b3:25:d0:f2:09:cb:72:e0:82:29:
                    e7:21:74:61:4b:85:12:25:fe:a3:9d:93:9a:67:ae:
                    7c:8f:34:4e:23:81:0f:ee:ea:83:47:50:ff:9d:62:
                    ec:cd:70:f8:36:93:ad:14:e1:d1:3f:20:53:fb:ca:
                    fc:c7:fd:eb:16:f4:2d:27:03:58:ae:c0:21:58:3b:
                    2b:51:e7:7d:95:1b:91:ac:0a:92:99:5c:05:ff:68:
                    4d:81:2a:a0:f5:f8:f2:31:2c:48:8c:7f:95:7e:7f:
                    7a:27:fd:59:e2:0d:dd:e1:a9:c1:d9:87:fe:bc:36:
                    bc:e4:85:54:2c:3f:ac:45:6e:bb:6e:b9:34:6d:8c:
                    14:be:f7:24:80:33:67:0d:95:01:e9:8a:75:24:55:
                    00:89
                Exponent: 65537 (0x10001)
        X509v3 extensions:
            X509v3 Key Usage: critical
                Digital Signature, Key Encipherment
            X509v3 Basic Constraints: 
                CA:FALSE
            X509v3 Extended Key Usage: 
                TLS Web Server Authentication, TLS Web Client Authentication
            X509v3 Subject Key Identifier: 
                B8:A3:6C:C1:2A:CA:B0:01:06:D0:8D:F0:49:DC:73:F9:3D:B5:DC:72
            X509v3 Authority Key Identifier: 
                keyid:CC:D4:28:71:54:EB:64:4C:80:BA:C3:E9:99:79:66:57:00:0D:28:7A

            Authority Information Access: 
                CA Issuers - URI:http://green.no/ca/tls-ca.cer

            X509v3 CRL Distribution Points: 

                Full Name:
                  URI:http://green.no/ca/tls-ca.crl

            X509v3 Subject Alternative Name: 
                DNS:green.no, DNS:www.green.no
    Signature Algorithm: sha1WithRSAEncryption
         24:d5:19:82:d0:40:1a:fc:4b:39:af:4a:e0:87:cf:5f:f5:20:
         d1:ab:1d:bd:0c:1c:df:6d:96:0f:17:48:7c:62:44:c1:f7:13:
         88:cc:6b:d2:ac:d2:9b:9a:9b:67:84:ed:f0:56:83:98:7d:a0:
         4a:ef:38:96:5f:ac:c1:6f:e3:a2:88:16:61:af:c4:29:32:7e:
         72:23:ab:c9:c9:10:7a:da:ac:e1:78:7d:54:e8:af:1d:bf:d8:
         ce:c0:56:e2:9e:b8:a8:16:32:3c:38:ef:fc:cd:84:51:db:ee:
         21:23:e3:02:11:93:3e:1c:48:bc:77:15:c2:8c:96:76:65:e1:
         e6:a9:aa:ca:16:b6:e9:33:d5:fc:a0:f3:8c:d5:d2:16:6b:4c:
         7b:de:64:de:03:e2:7d:d3:c4:ab:0b:d2:59:ac:6f:6b:bb:0f:
         ae:ea:45:1b:b0:25:4e:7f:ec:43:1c:39:0c:11:35:d9:45:1c:
         7b:eb:4c:0b:78:f0:51:f7:aa:03:b3:51:5d:0a:bc:6a:e1:36:
         fb:49:fb:63:e8:b8:62:97:86:19:9a:c7:52:21:18:0d:78:c7:
         06:fe:7f:21:ac:79:e7:4a:ba:b0:3d:06:cb:9f:cf:23:1f:02:
         4b:3a:29:1c:38:62:7d:39:da:ec:93:1b:40:4a:d6:95:e5:88:
         77:bc:83:74
-----BEGIN CERTIFICATE-----
MIIEHTCCAwWgAwIBAgIBATANBgkqhkiG9w0BAQUFADBdMQswCQYDVQQGEwJOTzER
MA8GA1UECgwIR3JlZW4gQVMxJDAiBgNVBAsMG0dyZWVuIENlcnRpZmljYXRlIEF1
dGhvcml0eTEVMBMGA1UEAwwMR3JlZW4gVExTIENBMB4XDTIxMDgwOTE0NDcyNloX
DTIzMDgwOTE0NDcyNlowNzELMAkGA1UEBhMCTk8xETAPBgNVBAoMCEdyZWVuIEFT
MRUwEwYDVQQDDAx3d3cuZ3JlZW4ubm8wggEiMA0GCSqGSIb3DQEBAQUAA4IBDwAw
ggEKAoIBAQDAeMeBVn+Wu7gzIYf3S/o2tjBp6IFCmPxspmyXNayhyddErnUNCZZM
UXkWb7ljitWaWBdxr4Tyl93YC3GOqskVBRJjmBStLWdbwrsnW8U7OeD3cewmOvJl
3beREQGwPGaG/MeYJnQc8FEv0IXvsyXQ8gnLcuCCKechdGFLhRIl/qOdk5pnrnyP
NE4jgQ/u6oNHUP+dYuzNcPg2k60U4dE/IFP7yvzH/esW9C0nA1iuwCFYOytR532V
G5GsCpKZXAX/aE2BKqD1+PIxLEiMf5V+f3on/VniDd3hqcHZh/68NrzkhVQsP6xF
brtuuTRtjBS+9ySAM2cNlQHpinUkVQCJAgMBAAGjggEMMIIBCDAOBgNVHQ8BAf8E
BAMCBaAwCQYDVR0TBAIwADAdBgNVHSUEFjAUBggrBgEFBQcDAQYIKwYBBQUHAwIw
HQYDVR0OBBYEFLijbMEqyrABBtCN8Encc/k9tdxyMB8GA1UdIwQYMBaAFMzUKHFU
62RMgLrD6Zl5ZlcADSh6MDkGCCsGAQUFBwEBBC0wKzApBggrBgEFBQcwAoYdaHR0
cDovL2dyZWVuLm5vL2NhL3Rscy1jYS5jZXIwLgYDVR0fBCcwJTAjoCGgH4YdaHR0
cDovL2dyZWVuLm5vL2NhL3Rscy1jYS5jcmwwIQYDVR0RBBowGIIIZ3JlZW4ubm+C
DHd3dy5ncmVlbi5ubzANBgkqhkiG9w0BAQUFAAOCAQEAJNUZgtBAGvxLOa9K4IfP
X/Ug0asdvQwc322WDxdIfGJEwfcTiMxr0qzSm5qbZ4Tt8FaDmH2gSu84ll+swW/j
oogWYa/EKTJ+ciOryckQetqs4Xh9VOivHb/YzsBW4p64qBYyPDjv/M2EUdvuISPj
AhGTPhxIvHcVwoyWdmXh5qmqyha26TPV/KDzjNXSFmtMe95k3gPifdPEqwvSWaxv
a7sPrupFG7AlTn/sQxw5DBE12UUce+tMC3jwUfeqA7NRXQq8auE2+0n7Y+i4YpeG
GZrHUiEYDXjHBv5/Iax550q6sD0Gy5/PIx8CSzopHDhifTna7JMbQErWleWId7yD
dA==
-----END CERTIFICATE-----
