Certificate:
    Data:
        Version: 3 (0x2)
        Serial Number: 1 (0x1)
        Signature Algorithm: sha1WithRSAEncryption
        Issuer: C=NO, O=Green AS, OU=Green Certificate Authority, CN=Green Software CA
        Validity
            Not Before: Aug  9 15:02:22 2021 GMT
            Not After : Aug  9 15:02:22 2026 GMT
        Subject: C=NO, O=Green AS, OU=Green Certificate Authority, CN=Green Software Certificate
        Subject Public Key Info:
            Public Key Algorithm: rsaEncryption
                RSA Public-Key: (2048 bit)
                Modulus:
                    00:f5:31:28:a9:0d:9d:8d:a4:bd:30:c3:02:c3:6e:
                    9c:bc:73:5f:30:9e:c5:96:68:9c:9c:a3:19:5b:7d:
                    b2:ec:12:39:55:e9:a8:35:14:f7:5a:87:fd:d8:4b:
                    91:85:f4:bc:ee:44:6a:75:2c:59:59:fd:fa:9c:72:
                    cd:e0:3d:fc:32:f4:10:b0:b2:59:36:10:d6:e7:bb:
                    e0:de:15:0d:7f:ff:d5:be:b7:b7:8f:6d:90:b7:63:
                    31:52:dc:b3:31:d3:12:37:66:c6:e8:75:2b:66:93:
                    73:27:c7:d7:2d:91:2f:a1:58:54:80:67:f0:94:d5:
                    a9:a0:3d:4d:71:e9:ab:7a:22:3c:30:47:65:4e:e2:
                    ed:96:17:d9:df:06:a8:35:99:e3:cf:93:97:34:c5:
                    e2:56:e1:5b:4e:b8:8b:36:85:a6:e5:60:10:83:9e:
                    01:4f:ae:a7:28:4b:14:a5:fd:ce:9b:20:95:01:9a:
                    46:67:40:de:6a:b5:91:d4:b9:63:16:6f:f7:2f:3a:
                    89:6b:16:b6:cc:59:2a:e1:21:9a:95:d9:da:24:33:
                    68:da:d6:f4:45:0e:0b:59:b5:42:ac:16:76:48:48:
                    c3:54:d7:4d:e5:c4:20:66:96:37:fe:19:f2:b7:db:
                    fb:d2:4d:c0:3b:a9:b0:a5:ad:85:a5:c8:a5:9f:35:
                    67:33
                Exponent: 65537 (0x10001)
        X509v3 extensions:
            X509v3 Key Usage: critical
                Digital Signature
            X509v3 Basic Constraints: 
                CA:FALSE
            X509v3 Extended Key Usage: critical
                Code Signing
            X509v3 Subject Key Identifier: 
                57:DB:85:5C:1D:39:D6:1F:8E:F4:82:67:F8:3A:9E:DA:60:33:55:E7
            X509v3 Authority Key Identifier: 
                keyid:A3:FF:E1:92:DB:B0:CA:17:92:AB:63:05:0E:EA:45:88:40:55:79:29

            Authority Information Access: 
                CA Issuers - URI:http://green.no/ca/software-ca.cer

            X509v3 CRL Distribution Points: 

                Full Name:
                  URI:http://green.no/ca/software-ca.crl

    Signature Algorithm: sha1WithRSAEncryption
         82:95:26:a8:28:19:e0:30:be:e2:47:73:4e:89:74:e8:8c:e9:
         0a:55:7c:6c:f0:dd:4f:b2:69:c5:aa:bc:64:7a:fe:e6:5b:38:
         14:ec:a1:38:c2:b4:34:d1:79:cd:95:5d:c5:9b:fd:89:f4:e9:
         a9:0b:7b:bc:d1:43:50:19:38:54:3e:d9:69:2a:e9:11:5d:54:
         0a:aa:88:ab:07:df:e2:60:95:c3:0a:a3:0d:1b:d4:6f:98:22:
         eb:04:d1:3c:63:8c:65:91:a2:7b:dc:bb:e9:f7:5d:5b:46:3f:
         f0:b1:33:fe:38:9d:ea:32:82:49:89:aa:1e:27:a8:b5:85:49:
         ac:16:e7:19:d0:0a:f2:b6:e0:1a:56:30:3a:dd:27:6c:2c:80:
         7c:a4:dc:af:5a:2b:d9:a1:b7:5d:91:bc:3d:ae:04:62:72:af:
         eb:82:d7:8a:22:84:c9:8a:fd:1e:16:ac:a5:20:cc:2e:c3:b6:
         b8:0f:78:ac:ca:1f:b9:ec:d5:aa:77:1a:4d:e3:57:16:08:40:
         0f:14:e1:13:7c:ee:93:63:1e:8c:f6:b4:40:71:db:e8:f4:4a:
         64:b8:7f:fe:49:5f:a1:cf:13:39:fc:fd:d3:5d:f4:2b:5b:9b:
         8f:41:9f:4c:a5:84:12:71:4b:be:69:7a:6e:1e:42:7b:2d:9b:
         32:e9:35:57
-----BEGIN CERTIFICATE-----
MIIENDCCAxygAwIBAgIBATANBgkqhkiG9w0BAQUFADBiMQswCQYDVQQGEwJOTzER
MA8GA1UECgwIR3JlZW4gQVMxJDAiBgNVBAsMG0dyZWVuIENlcnRpZmljYXRlIEF1
dGhvcml0eTEaMBgGA1UEAwwRR3JlZW4gU29mdHdhcmUgQ0EwHhcNMjEwODA5MTUw
MjIyWhcNMjYwODA5MTUwMjIyWjBrMQswCQYDVQQGEwJOTzERMA8GA1UECgwIR3Jl
ZW4gQVMxJDAiBgNVBAsMG0dyZWVuIENlcnRpZmljYXRlIEF1dGhvcml0eTEjMCEG
A1UEAwwaR3JlZW4gU29mdHdhcmUgQ2VydGlmaWNhdGUwggEiMA0GCSqGSIb3DQEB
AQUAA4IBDwAwggEKAoIBAQD1MSipDZ2NpL0wwwLDbpy8c18wnsWWaJycoxlbfbLs
EjlV6ag1FPdah/3YS5GF9LzuRGp1LFlZ/fqccs3gPfwy9BCwslk2ENbnu+DeFQ1/
/9W+t7ePbZC3YzFS3LMx0xI3ZsbodStmk3Mnx9ctkS+hWFSAZ/CU1amgPU1x6at6
IjwwR2VO4u2WF9nfBqg1mePPk5c0xeJW4VtOuIs2hablYBCDngFPrqcoSxSl/c6b
IJUBmkZnQN5qtZHUuWMWb/cvOolrFrbMWSrhIZqV2dokM2ja1vRFDgtZtUKsFnZI
SMNU103lxCBmljf+GfK32/vSTcA7qbClrYWlyKWfNWczAgMBAAGjgeswgegwDgYD
VR0PAQH/BAQDAgeAMAkGA1UdEwQCMAAwFgYDVR0lAQH/BAwwCgYIKwYBBQUHAwMw
HQYDVR0OBBYEFFfbhVwdOdYfjvSCZ/g6ntpgM1XnMB8GA1UdIwQYMBaAFKP/4ZLb
sMoXkqtjBQ7qRYhAVXkpMD4GCCsGAQUFBwEBBDIwMDAuBggrBgEFBQcwAoYiaHR0
cDovL2dyZWVuLm5vL2NhL3NvZnR3YXJlLWNhLmNlcjAzBgNVHR8ELDAqMCigJqAk
hiJodHRwOi8vZ3JlZW4ubm8vY2Evc29mdHdhcmUtY2EuY3JsMA0GCSqGSIb3DQEB
BQUAA4IBAQCClSaoKBngML7iR3NOiXTojOkKVXxs8N1PsmnFqrxkev7mWzgU7KE4
wrQ00XnNlV3Fm/2J9OmpC3u80UNQGThUPtlpKukRXVQKqoirB9/iYJXDCqMNG9Rv
mCLrBNE8Y4xlkaJ73Lvp911bRj/wsTP+OJ3qMoJJiaoeJ6i1hUmsFucZ0ArytuAa
VjA63SdsLIB8pNyvWivZobddkbw9rgRicq/rgteKIoTJiv0eFqylIMwuw7a4D3is
yh+57NWqdxpN41cWCEAPFOETfO6TYx6M9rRAcdvo9EpkuH/+SV+hzxM5/P3TXfQr
W5uPQZ9MpYQScUu+aXpuHkJ7LZsy6TVX
-----END CERTIFICATE-----
